; Function Attrs: mustprogress nofree noinline norecurse nosync nounwind willreturn memory(argmem: read) uwtable
define internal fastcc i64 @mi_page_usable_aligned_size_of(ptr noundef readonly captures(none) %0, ptr noundef %1) unnamed_addr #12 {
  %3 = getelementptr inbounds nuw i8, ptr %0, i64 48
  %4 = load ptr, ptr %3, align 8, !tbaa !30
  %5 = ptrtoint ptr %1 to i64
  %6 = ptrtoint ptr %4 to i64
  %7 = sub i64 %5, %6
  %8 = getelementptr inbounds nuw i8, ptr %0, i64 34
  %9 = load i8, ptr %8, align 2, !tbaa !31
  %.not.i = icmp eq i8 %9, 0
  br i1 %.not.i, label %14, label %10, !prof !18

10:                                               ; preds = %2
  %11 = zext nneg i8 %9 to i64
  %notmask.i = shl nsw i64 -1, %11
  %12 = xor i64 %notmask.i, -1
  %13 = and i64 %7, %12
  %.phi.trans.insert = getelementptr i8, ptr %0, i64 40
  %.val.pre = load i64, ptr %.phi.trans.insert, align 8, !tbaa !22
  br label %_mi_page_ptr_unalign.exit

14:                                               ; preds = %2
  %15 = getelementptr i8, ptr %0, i64 40
  %.val.i = load i64, ptr %15, align 8, !tbaa !22
  %16 = urem i64 %7, %.val.i
  br label %_mi_page_ptr_unalign.exit

_mi_page_ptr_unalign.exit:                        ; preds = %10, %14
  %.val = phi i64 [ %.val.pre, %10 ], [ %.val.i, %14 ]
  %.0.i = phi i64 [ %13, %10 ], [ %16, %14 ]
  %17 = sub i64 %.val, %.0.i
  ret i64 %17
}